target datalayout = "e-m:e-p270:32:32-p271:32:32-p272:64:64-i64:64-i128:128-f80:128-n8:16:32:64-S128"
target triple = "x86_64-pc-linux-gnu"

%struct.AVRational = type { i32, i32 }
%struct.AVStream = type { ptr, i32, i32, ptr, ptr, %struct.AVRational, i64, i64, i64, i32, i32, %struct.AVRational, ptr, %struct.AVRational, %struct.AVPacket, i32, %struct.AVRational, i32 }
%struct.AVPacket = type { ptr, i64, i64, ptr, i32, i32, i32, ptr, i32, i64, i64, ptr, ptr, %struct.AVRational }
%struct.AVFormatContext = type { ptr, ptr, ptr, ptr, ptr, i32, i32, ptr, i32, ptr, i32, ptr, ptr, i64, i64, i64, i32, i32, i32, i64, i64, ptr, i32, i32, ptr, i32, i32, i32, i32, ptr, i64, i32, i32, %struct.AVIOInterruptCB, i32, i32, i32, i32, i64, i32, i32, i32, i32, i32, i32, i32, i32, i32, i32, i32, i32, i64, i32, i32, i32, i32, i32, ptr, ptr, ptr, ptr, i32, ptr, ptr, ptr, ptr, i32, ptr, ptr, i64, ptr, ptr, ptr, i64 }
%struct.AVIOInterruptCB = type { ptr, ptr }

@.str = private unnamed_addr constant [30 x i8] c"Assertion %s failed at %s:%d\0A\00", align 1
@.str.1 = private unnamed_addr constant [16 x i8] c"s->nb_streams>0\00", align 1
@.str.2 = private unnamed_addr constant [23 x i8] c"libavformat/avformat.c\00", align 1
@.str.3 = private unnamed_addr constant [38 x i8] c"s->streams[ s->nb_streams - 1 ] == st\00", align 1

; Function Attrs: nounwind uwtable
define void @ff_remove_stream(ptr noundef %0, ptr noundef %1) #0 {
  %3 = alloca ptr, align 8
  %4 = alloca ptr, align 8
  store ptr %0, ptr %3, align 8, !tbaa !47
  store ptr %1, ptr %4, align 8, !tbaa !10
  br label %5

5:                                                ; preds = %2
  %6 = load ptr, ptr %3, align 8, !tbaa !47
  %7 = getelementptr inbounds nuw %struct.AVFormatContext, ptr %6, i32 0, i32 6
  %8 = load i32, ptr %7, align 4, !tbaa !48
  %9 = icmp ugt i32 %8, 0
  br i1 %9, label %11, label %10

10:                                               ; preds = %5
  call void (ptr, i32, ptr, ...) @av_log(ptr noundef null, i32 noundef 0, ptr noundef @.str, ptr noundef @.str.1, ptr noundef @.str.2, i32 noundef 115)
  call void @abort() #12
  unreachable

11:                                               ; preds = %5
  br label %12

12:                                               ; preds = %11
  br label %13

13:                                               ; preds = %12
  %14 = load ptr, ptr %3, align 8, !tbaa !47
  %15 = getelementptr inbounds nuw %struct.AVFormatContext, ptr %14, i32 0, i32 7
  %16 = load ptr, ptr %15, align 8, !tbaa !57
  %17 = load ptr, ptr %3, align 8, !tbaa !47
  %18 = getelementptr inbounds nuw %struct.AVFormatContext, ptr %17, i32 0, i32 6
  %19 = load i32, ptr %18, align 4, !tbaa !48
  %20 = sub i32 %19, 1
  %21 = zext i32 %20 to i64
  %22 = getelementptr inbounds nuw ptr, ptr %16, i64 %21
  %23 = load ptr, ptr %22, align 8, !tbaa !10
  %24 = load ptr, ptr %4, align 8, !tbaa !10
  %25 = icmp eq ptr %23, %24
  br i1 %25, label %27, label %26

26:                                               ; preds = %13
  call void (ptr, i32, ptr, ...) @av_log(ptr noundef null, i32 noundef 0, ptr noundef @.str, ptr noundef @.str.3, ptr noundef @.str.2, i32 noundef 116)
  call void @abort() #12
  unreachable

27:                                               ; preds = %13
  br label %28

28:                                               ; preds = %27
  %29 = load ptr, ptr %3, align 8, !tbaa !47
  %30 = getelementptr inbounds nuw %struct.AVFormatContext, ptr %29, i32 0, i32 7
  %31 = load ptr, ptr %30, align 8, !tbaa !57
  %32 = load ptr, ptr %3, align 8, !tbaa !47
  %33 = getelementptr inbounds nuw %struct.AVFormatContext, ptr %32, i32 0, i32 6
  %34 = load i32, ptr %33, align 4, !tbaa !48
  %35 = add i32 %34, -1
  store i32 %35, ptr %33, align 4, !tbaa !48
  %36 = zext i32 %35 to i64
  %37 = getelementptr inbounds nuw ptr, ptr %31, i64 %36
  call void @ff_free_stream(ptr noundef %37)
  ret void
}

; Function Attrs: nounwind uwtable
define internal i32 @stream_params_copy(ptr noundef %0, ptr noundef %1) #0 {
  %3 = alloca i32, align 4
  %4 = alloca ptr, align 8
  %5 = alloca ptr, align 8
  %6 = alloca i32, align 4
  %7 = alloca i32, align 4
  store ptr %0, ptr %4, align 8, !tbaa !10
  store ptr %1, ptr %5, align 8, !tbaa !10
  call void @llvm.lifetime.start.p0(i64 4, ptr %6) #11
  %8 = load ptr, ptr %5, align 8, !tbaa !10
  %9 = getelementptr inbounds nuw %struct.AVStream, ptr %8, i32 0, i32 2
  %10 = load i32, ptr %9, align 4, !tbaa !89
  %11 = load ptr, ptr %4, align 8, !tbaa !10
  %12 = getelementptr inbounds nuw %struct.AVStream, ptr %11, i32 0, i32 2
  store i32 %10, ptr %12, align 4, !tbaa !89
  %13 = load ptr, ptr %4, align 8, !tbaa !10
  %14 = getelementptr inbounds nuw %struct.AVStream, ptr %13, i32 0, i32 5
  %15 = load ptr, ptr %5, align 8, !tbaa !10
  %16 = getelementptr inbounds nuw %struct.AVStream, ptr %15, i32 0, i32 5
  call void @llvm.memcpy.p0.p0.i64(ptr align 8 %14, ptr align 8 %16, i64 8, i1 false), !tbaa.struct !90
  %17 = load ptr, ptr %5, align 8, !tbaa !10
  %18 = getelementptr inbounds nuw %struct.AVStream, ptr %17, i32 0, i32 6
  %19 = load i64, ptr %18, align 8, !tbaa !91
  %20 = load ptr, ptr %4, align 8, !tbaa !10
  %21 = getelementptr inbounds nuw %struct.AVStream, ptr %20, i32 0, i32 6
  store i64 %19, ptr %21, align 8, !tbaa !91
  %22 = load ptr, ptr %5, align 8, !tbaa !10
  %23 = getelementptr inbounds nuw %struct.AVStream, ptr %22, i32 0, i32 7
  %24 = load i64, ptr %23, align 8, !tbaa !92
  %25 = load ptr, ptr %4, align 8, !tbaa !10
  %26 = getelementptr inbounds nuw %struct.AVStream, ptr %25, i32 0, i32 7
  store i64 %24, ptr %26, align 8, !tbaa !92
  %27 = load ptr, ptr %5, align 8, !tbaa !10
  %28 = getelementptr inbounds nuw %struct.AVStream, ptr %27, i32 0, i32 8
  %29 = load i64, ptr %28, align 8, !tbaa !93
  %30 = load ptr, ptr %4, align 8, !tbaa !10
  %31 = getelementptr inbounds nuw %struct.AVStream, ptr %30, i32 0, i32 8
  store i64 %29, ptr %31, align 8, !tbaa !93
  %32 = load ptr, ptr %5, align 8, !tbaa !10
  %33 = getelementptr inbounds nuw %struct.AVStream, ptr %32, i32 0, i32 9
  %34 = load i32, ptr %33, align 8, !tbaa !94
  %35 = load ptr, ptr %4, align 8, !tbaa !10
  %36 = getelementptr inbounds nuw %struct.AVStream, ptr %35, i32 0, i32 9
  store i32 %34, ptr %36, align 8, !tbaa !94
  %37 = load ptr, ptr %5, align 8, !tbaa !10
  %38 = getelementptr inbounds nuw %struct.AVStream, ptr %37, i32 0, i32 10
  %39 = load i32, ptr %38, align 4, !tbaa !95
  %40 = load ptr, ptr %4, align 8, !tbaa !10
  %41 = getelementptr inbounds nuw %struct.AVStream, ptr %40, i32 0, i32 10
  store i32 %39, ptr %41, align 4, !tbaa !95
  %42 = load ptr, ptr %4, align 8, !tbaa !10
  %43 = getelementptr inbounds nuw %struct.AVStream, ptr %42, i32 0, i32 11
  %44 = load ptr, ptr %5, align 8, !tbaa !10
  %45 = getelementptr inbounds nuw %struct.AVStream, ptr %44, i32 0, i32 11
  call void @llvm.memcpy.p0.p0.i64(ptr align 8 %43, ptr align 8 %45, i64 8, i1 false), !tbaa.struct !90
  %46 = load ptr, ptr %4, align 8, !tbaa !10
  %47 = getelementptr inbounds nuw %struct.AVStream, ptr %46, i32 0, i32 13
  %48 = load ptr, ptr %5, align 8, !tbaa !10
  %49 = getelementptr inbounds nuw %struct.AVStream, ptr %48, i32 0, i32 13
  call void @llvm.memcpy.p0.p0.i64(ptr align 8 %47, ptr align 8 %49, i64 8, i1 false), !tbaa.struct !90
  %50 = load ptr, ptr %5, align 8, !tbaa !10
  %51 = getelementptr inbounds nuw %struct.AVStream, ptr %50, i32 0, i32 15
  %52 = load i32, ptr %51, align 8, !tbaa !96
  %53 = load ptr, ptr %4, align 8, !tbaa !10
  %54 = getelementptr inbounds nuw %struct.AVStream, ptr %53, i32 0, i32 15
  store i32 %52, ptr %54, align 8, !tbaa !96
  %55 = load ptr, ptr %4, align 8, !tbaa !10
  %56 = getelementptr inbounds nuw %struct.AVStream, ptr %55, i32 0, i32 16
  %57 = load ptr, ptr %5, align 8, !tbaa !10
  %58 = getelementptr inbounds nuw %struct.AVStream, ptr %57, i32 0, i32 16
  call void @llvm.memcpy.p0.p0.i64(ptr align 4 %56, ptr align 4 %58, i64 8, i1 false), !tbaa.struct !90
  %59 = load ptr, ptr %5, align 8, !tbaa !10
  %60 = getelementptr inbounds nuw %struct.AVStream, ptr %59, i32 0, i32 17
  %61 = load i32, ptr %60, align 4, !tbaa !97
  %62 = load ptr, ptr %4, align 8, !tbaa !10
  %63 = getelementptr inbounds nuw %struct.AVStream, ptr %62, i32 0, i32 17
  store i32 %61, ptr %63, align 4, !tbaa !97
  %64 = load ptr, ptr %4, align 8, !tbaa !10
  %65 = getelementptr inbounds nuw %struct.AVStream, ptr %64, i32 0, i32 12
  call void @av_dict_free(ptr noundef %65)
  %66 = load ptr, ptr %4, align 8, !tbaa !10
  %67 = getelementptr inbounds nuw %struct.AVStream, ptr %66, i32 0, i32 12
  %68 = load ptr, ptr %5, align 8, !tbaa !10
  %69 = getelementptr inbounds nuw %struct.AVStream, ptr %68, i32 0, i32 12
  %70 = load ptr, ptr %69, align 8, !tbaa !98
  %71 = call i32 @av_dict_copy(ptr noundef %67, ptr noundef %70, i32 noundef 0)
  store i32 %71, ptr %6, align 4, !tbaa !74
  %72 = load i32, ptr %6, align 4, !tbaa !74
  %73 = icmp slt i32 %72, 0
  br i1 %73, label %74, label %76

74:                                               ; preds = %2
  %75 = load i32, ptr %6, align 4, !tbaa !74
  store i32 %75, ptr %3, align 4
  store i32 1, ptr %7, align 4
  br label %108

76:                                               ; preds = %2
  %77 = load ptr, ptr %4, align 8, !tbaa !10
  %78 = getelementptr inbounds nuw %struct.AVStream, ptr %77, i32 0, i32 3
  %79 = load ptr, ptr %78, align 8, !tbaa !99
  %80 = load ptr, ptr %5, align 8, !tbaa !10
  %81 = getelementptr inbounds nuw %struct.AVStream, ptr %80, i32 0, i32 3
  %82 = load ptr, ptr %81, align 8, !tbaa !99
  %83 = call i32 @avcodec_parameters_copy(ptr noundef %79, ptr noundef %82)
  store i32 %83, ptr %6, align 4, !tbaa !74
  %84 = load i32, ptr %6, align 4, !tbaa !74
  %85 = icmp slt i32 %84, 0
  br i1 %85, label %86, label %88

86:                                               ; preds = %76
  %87 = load i32, ptr %6, align 4, !tbaa !74
  store i32 %87, ptr %3, align 4
  store i32 1, ptr %7, align 4
  br label %108

88:                                               ; preds = %76
  %89 = load ptr, ptr %4, align 8, !tbaa !10
  %90 = getelementptr inbounds nuw %struct.AVStream, ptr %89, i32 0, i32 14
  call void @av_packet_unref(ptr noundef %90)
  %91 = load ptr, ptr %5, align 8, !tbaa !10
  %92 = getelementptr inbounds nuw %struct.AVStream, ptr %91, i32 0, i32 14
  %93 = getelementptr inbounds nuw %struct.AVPacket, ptr %92, i32 0, i32 3
  %94 = load ptr, ptr %93, align 8, !tbaa !14
  %95 = icmp ne ptr %94, null
  br i1 %95, label %96, label %107

96:                                               ; preds = %88
  %97 = load ptr, ptr %4, align 8, !tbaa !10
  %98 = getelementptr inbounds nuw %struct.AVStream, ptr %97, i32 0, i32 14
  %99 = load ptr, ptr %5, align 8, !tbaa !10
  %100 = getelementptr inbounds nuw %struct.AVStream, ptr %99, i32 0, i32 14
  %101 = call i32 @av_packet_ref(ptr noundef %98, ptr noundef %100)
  store i32 %101, ptr %6, align 4, !tbaa !74
  %102 = load i32, ptr %6, align 4, !tbaa !74
  %103 = icmp slt i32 %102, 0
  br i1 %103, label %104, label %106

104:                                              ; preds = %96
  %105 = load i32, ptr %6, align 4, !tbaa !74
  store i32 %105, ptr %3, align 4
  store i32 1, ptr %7, align 4
  br label %108

106:                                              ; preds = %96
  br label %107

107:                                              ; preds = %106, %88
  store i32 0, ptr %3, align 4
  store i32 1, ptr %7, align 4
  br label %108

108:                                              ; preds = %107, %104, %86, %74
  call void @llvm.lifetime.end.p0(i64 4, ptr %6) #11
  %109 = load i32, ptr %3, align 4
  ret i32 %109
}

; Function Attrs: nounwind uwtable
define ptr @ff_stream_clone(ptr noundef %0, ptr noundef %1) #0 {
  %3 = alloca ptr, align 8
  %4 = alloca ptr, align 8
  %5 = alloca ptr, align 8
  %6 = alloca ptr, align 8
  %7 = alloca i32, align 4
  %8 = alloca i32, align 4
  store ptr %0, ptr %4, align 8, !tbaa !47
  store ptr %1, ptr %5, align 8, !tbaa !10
  call void @llvm.lifetime.start.p0(i64 8, ptr %6) #11
  call void @llvm.lifetime.start.p0(i64 4, ptr %7) #11
  %9 = load ptr, ptr %4, align 8, !tbaa !47
  %10 = call ptr @avformat_new_stream(ptr noundef %9, ptr noundef null)
  store ptr %10, ptr %6, align 8, !tbaa !10
  %11 = load ptr, ptr %6, align 8, !tbaa !10
  %12 = icmp ne ptr %11, null
  br i1 %12, label %14, label %13

13:                                               ; preds = %2
  store ptr null, ptr %3, align 8
  store i32 1, ptr %8, align 4
  br label %25

14:                                               ; preds = %2
  %15 = load ptr, ptr %6, align 8, !tbaa !10
  %16 = load ptr, ptr %5, align 8, !tbaa !10
  %17 = call i32 @stream_params_copy(ptr noundef %15, ptr noundef %16)
  store i32 %17, ptr %7, align 4, !tbaa !74
  %18 = load i32, ptr %7, align 4, !tbaa !74
  %19 = icmp slt i32 %18, 0
  br i1 %19, label %20, label %23

20:                                               ; preds = %14
  %21 = load ptr, ptr %4, align 8, !tbaa !47
  %22 = load ptr, ptr %6, align 8, !tbaa !10
  call void @ff_remove_stream(ptr noundef %21, ptr noundef %22)
  store ptr null, ptr %3, align 8
  store i32 1, ptr %8, align 4
  br label %25

23:                                               ; preds = %14
  %24 = load ptr, ptr %6, align 8, !tbaa !10
  store ptr %24, ptr %3, align 8
  store i32 1, ptr %8, align 4
  br label %25

25:                                               ; preds = %23, %20, %13
  call void @llvm.lifetime.end.p0(i64 4, ptr %7) #11
  call void @llvm.lifetime.end.p0(i64 8, ptr %6) #11
  %26 = load ptr, ptr %3, align 8
  ret ptr %26
}