; Function Attrs: nounwind uwtable
define ptr @ff_stream_clone(ptr noundef %0, ptr noundef %1) local_unnamed_addr #0 {
  %3 = tail call ptr @avformat_new_stream(ptr noundef %0, ptr noundef null) #13
  %.not = icmp eq ptr %3, null
  br i1 %.not, label %stream_params_copy.exit, label %4

4:                                                ; preds = %2
  %5 = getelementptr inbounds nuw i8, ptr %1, i64 12
  %6 = load i32, ptr %5, align 4, !tbaa !78
  %7 = getelementptr inbounds nuw i8, ptr %3, i64 12
  store i32 %6, ptr %7, align 4, !tbaa !78
  %8 = getelementptr inbounds nuw i8, ptr %3, i64 32
  %9 = getelementptr inbounds nuw i8, ptr %1, i64 32
  %10 = load i64, ptr %9, align 8
  store i64 %10, ptr %8, align 8
  %11 = getelementptr inbounds nuw i8, ptr %1, i64 40
  %12 = load i64, ptr %11, align 8, !tbaa !79
  %13 = getelementptr inbounds nuw i8, ptr %3, i64 40
  store i64 %12, ptr %13, align 8, !tbaa !79
  %14 = getelementptr inbounds nuw i8, ptr %1, i64 48
  %15 = load i64, ptr %14, align 8, !tbaa !80
  %16 = getelementptr inbounds nuw i8, ptr %3, i64 48
  store i64 %15, ptr %16, align 8, !tbaa !80
  %17 = getelementptr inbounds nuw i8, ptr %1, i64 56
  %18 = load i64, ptr %17, align 8, !tbaa !81
  %19 = getelementptr inbounds nuw i8, ptr %3, i64 56
  store i64 %18, ptr %19, align 8, !tbaa !81
  %20 = getelementptr inbounds nuw i8, ptr %1, i64 64
  %21 = load i32, ptr %20, align 8, !tbaa !82
  %22 = getelementptr inbounds nuw i8, ptr %3, i64 64
  store i32 %21, ptr %22, align 8, !tbaa !82
  %23 = getelementptr inbounds nuw i8, ptr %1, i64 68
  %24 = load i32, ptr %23, align 4, !tbaa !83
  %25 = getelementptr inbounds nuw i8, ptr %3, i64 68
  store i32 %24, ptr %25, align 4, !tbaa !83
  %26 = getelementptr inbounds nuw i8, ptr %3, i64 72
  %27 = getelementptr inbounds nuw i8, ptr %1, i64 72
  %28 = load i64, ptr %27, align 8
  store i64 %28, ptr %26, align 8
  %29 = getelementptr inbounds nuw i8, ptr %3, i64 88
  %30 = getelementptr inbounds nuw i8, ptr %1, i64 88
  %31 = load i64, ptr %30, align 8
  store i64 %31, ptr %29, align 8
  %32 = getelementptr inbounds nuw i8, ptr %1, i64 200
  %33 = load i32, ptr %32, align 8, !tbaa !84
  %34 = getelementptr inbounds nuw i8, ptr %3, i64 200
  store i32 %33, ptr %34, align 8, !tbaa !84
  %35 = getelementptr inbounds nuw i8, ptr %3, i64 204
  %36 = getelementptr inbounds nuw i8, ptr %1, i64 204
  %37 = load i64, ptr %36, align 4
  store i64 %37, ptr %35, align 4
  %38 = getelementptr inbounds nuw i8, ptr %1, i64 212
  %39 = load i32, ptr %38, align 4, !tbaa !85
  %40 = getelementptr inbounds nuw i8, ptr %3, i64 212
  store i32 %39, ptr %40, align 4, !tbaa !85
  %41 = getelementptr inbounds nuw i8, ptr %3, i64 80
  tail call void @av_dict_free(ptr noundef nonnull %41) #13
  %42 = getelementptr inbounds nuw i8, ptr %1, i64 80
  %43 = load ptr, ptr %42, align 8, !tbaa !86
  %44 = tail call i32 @av_dict_copy(ptr noundef nonnull %41, ptr noundef %43, i32 noundef 0) #13
  %45 = icmp slt i32 %44, 0
  br i1 %45, label %61, label %46

46:                                               ; preds = %4
  %47 = getelementptr inbounds nuw i8, ptr %3, i64 16
  %48 = load ptr, ptr %47, align 8, !tbaa !87
  %49 = getelementptr inbounds nuw i8, ptr %1, i64 16
  %50 = load ptr, ptr %49, align 8, !tbaa !87
  %51 = tail call i32 @avcodec_parameters_copy(ptr noundef %48, ptr noundef %50) #13
  %52 = icmp slt i32 %51, 0
  br i1 %52, label %61, label %53

53:                                               ; preds = %46
  %54 = getelementptr inbounds nuw i8, ptr %3, i64 96
  tail call void @av_packet_unref(ptr noundef nonnull %54) #13
  %55 = getelementptr inbounds nuw i8, ptr %1, i64 120
  %56 = load ptr, ptr %55, align 8, !tbaa !9
  %.not.i = icmp eq ptr %56, null
  br i1 %.not.i, label %stream_params_copy.exit, label %57

57:                                               ; preds = %53
  %58 = getelementptr inbounds nuw i8, ptr %1, i64 96
  %59 = tail call i32 @av_packet_ref(ptr noundef nonnull %54, ptr noundef nonnull %58) #13
  %60 = icmp slt i32 %59, 0
  br i1 %60, label %61, label %stream_params_copy.exit

61:                                               ; preds = %4, %46, %57
  %62 = getelementptr inbounds nuw i8, ptr %0, i64 44
  %63 = load i32, ptr %62, align 4, !tbaa !42
  %.not.i9 = icmp eq i32 %63, 0
  br i1 %.not.i9, label %64, label %65

64:                                               ; preds = %61
  tail call void (ptr, i32, ptr, ...) @av_log(ptr noundef null, i32 noundef 0, ptr noundef nonnull @.str, ptr noundef nonnull @.str.1, ptr noundef nonnull @.str.2, i32 noundef 115) #13
  tail call void @abort() #14
  unreachable

65:                                               ; preds = %61
  %66 = getelementptr inbounds nuw i8, ptr %0, i64 48
  %67 = load ptr, ptr %66, align 8, !tbaa !52
  %68 = add i32 %63, -1
  %69 = zext i32 %68 to i64
  %70 = getelementptr inbounds nuw ptr, ptr %67, i64 %69
  %71 = load ptr, ptr %70, align 8, !tbaa !4
  %72 = icmp eq ptr %71, %3
  br i1 %72, label %ff_remove_stream.exit, label %73

73:                                               ; preds = %65
  tail call void (ptr, i32, ptr, ...) @av_log(ptr noundef null, i32 noundef 0, ptr noundef nonnull @.str, ptr noundef nonnull @.str.3, ptr noundef nonnull @.str.2, i32 noundef 116) #13
  tail call void @abort() #14
  unreachable

ff_remove_stream.exit:                            ; preds = %65
  store i32 %68, ptr %62, align 4, !tbaa !42
  tail call void @ff_free_stream(ptr noundef nonnull %70)
  br label %stream_params_copy.exit

stream_params_copy.exit:                          ; preds = %57, %53, %2, %ff_remove_stream.exit
  %.0 = phi ptr [ null, %ff_remove_stream.exit ], [ null, %2 ], [ %3, %53 ], [ %3, %57 ]
  ret ptr %.0
}